; Function Attrs: nounwind uwtable
define internal range(i32 -1, 1) i32 @H5D__none_idx_create(ptr noundef readonly captures(none) %0) #0 {
  %2 = load i8, ptr @H5D_init_g, align 1, !tbaa !3, !range !7, !noundef !8
  %3 = trunc nuw i8 %2 to i1
  %4 = load i8, ptr @H5_libterm_g, align 1, !range !7
  %5 = trunc nuw i8 %4 to i1
  %6 = xor i1 %5, true
  %7 = select i1 %3, i1 true, i1 %6
  br i1 %7, label %8, label %27, !prof !9

8:                                                ; preds = %1
  %9 = getelementptr inbounds nuw i8, ptr %0, i64 16
  %10 = load ptr, ptr %9, align 8, !tbaa !10
  %11 = getelementptr inbounds nuw i8, ptr %10, i64 160
  %12 = load i64, ptr %11, align 8, !tbaa !17
  %13 = getelementptr inbounds nuw i8, ptr %10, i64 148
  %14 = load i32, ptr %13, align 4, !tbaa !21
  %15 = zext i32 %14 to i64
  %16 = mul i64 %12, %15
  %17 = load ptr, ptr %0, align 8, !tbaa !22
  %18 = tail call i64 @H5MF_alloc(ptr noundef %17, i32 noundef 3, i64 noundef %16) #9
  %.not = icmp eq i64 %18, -1
  br i1 %.not, label %19, label %23

19:                                               ; preds = %8
  %20 = load i64, ptr @H5E_DATASET_g, align 8, !tbaa !23
  %21 = load i64, ptr @H5E_CANTALLOC_g, align 8, !tbaa !23
  %22 = tail call i32 (ptr, ptr, i32, i64, i64, ptr, ...) @H5E_printf_stack(ptr noundef nonnull @.str, ptr noundef nonnull @__func__.H5D__none_idx_create, i32 noundef 141, i64 noundef %20, i64 noundef %21, ptr noundef nonnull @.str.1) #9
  br label %27

23:                                               ; preds = %8
  %24 = getelementptr inbounds nuw i8, ptr %0, i64 24
  %25 = load ptr, ptr %24, align 8, !tbaa !24
  %26 = getelementptr inbounds nuw i8, ptr %25, i64 8
  store i64 %18, ptr %26, align 8, !tbaa !25
  br label %27

27:                                               ; preds = %19, %23, %1
  %.0 = phi i32 [ 0, %23 ], [ -1, %19 ], [ 0, %1 ]
  ret i32 %.0
}